target datalayout = "e-m:e-p270:32:32-p271:32:32-p272:64:64-i64:64-i128:128-f80:128-n8:16:32:64-S128"
target triple = "x86_64-pc-linux-gnu"

; Function Attrs: nounwind uwtable
define i64 @amd_l_post_tree(i64 noundef %0, i64 noundef %1, ptr noundef %2, ptr noundef %3, ptr noundef %4, ptr noundef %5) #0 {
  %7 = alloca i64, align 8
  %8 = alloca i64, align 8
  %9 = alloca ptr, align 8
  %10 = alloca ptr, align 8
  %11 = alloca ptr, align 8
  %12 = alloca ptr, align 8
  %13 = alloca i64, align 8
  %14 = alloca i64, align 8
  %15 = alloca i64, align 8
  %16 = alloca i64, align 8
  store i64 %0, ptr %7, align 8
  store i64 %1, ptr %8, align 8
  store ptr %2, ptr %9, align 8
  store ptr %3, ptr %10, align 8
  store ptr %4, ptr %11, align 8
  store ptr %5, ptr %12, align 8
  store i64 0, ptr %14, align 8
  %17 = load i64, ptr %7, align 8
  %18 = load ptr, ptr %12, align 8
  %19 = getelementptr inbounds i64, ptr %18, i64 0
  store i64 %17, ptr %19, align 8
  br label %20

20:                                               ; preds = %81, %6
  %21 = load i64, ptr %14, align 8
  %22 = icmp sge i64 %21, 0
  br i1 %22, label %23, label %82

23:                                               ; preds = %20
  %24 = load ptr, ptr %12, align 8
  %25 = load i64, ptr %14, align 8
  %26 = getelementptr inbounds i64, ptr %24, i64 %25
  %27 = load i64, ptr %26, align 8
  store i64 %27, ptr %16, align 8
  %28 = load ptr, ptr %9, align 8
  %29 = load i64, ptr %16, align 8
  %30 = getelementptr inbounds i64, ptr %28, i64 %29
  %31 = load i64, ptr %30, align 8
  %32 = icmp ne i64 %31, -1
  br i1 %32, label %33, label %73

33:                                               ; preds = %23
  %34 = load ptr, ptr %9, align 8
  %35 = load i64, ptr %16, align 8
  %36 = getelementptr inbounds i64, ptr %34, i64 %35
  %37 = load i64, ptr %36, align 8
  store i64 %37, ptr %13, align 8
  br label %38

38:                                               ; preds = %44, %33
  %39 = load i64, ptr %13, align 8
  %40 = icmp ne i64 %39, -1
  br i1 %40, label %41, label %49

41:                                               ; preds = %38
  %42 = load i64, ptr %14, align 8
  %43 = add nsw i64 %42, 1
  store i64 %43, ptr %14, align 8
  br label %44

44:                                               ; preds = %41
  %45 = load ptr, ptr %10, align 8
  %46 = load i64, ptr %13, align 8
  %47 = getelementptr inbounds i64, ptr %45, i64 %46
  %48 = load i64, ptr %47, align 8
  store i64 %48, ptr %13, align 8
  br label %38, !llvm.loop !4

49:                                               ; preds = %38
  %50 = load i64, ptr %14, align 8
  store i64 %50, ptr %15, align 8
  %51 = load ptr, ptr %9, align 8
  %52 = load i64, ptr %16, align 8
  %53 = getelementptr inbounds i64, ptr %51, i64 %52
  %54 = load i64, ptr %53, align 8
  store i64 %54, ptr %13, align 8
  br label %55

55:                                               ; preds = %64, %49
  %56 = load i64, ptr %13, align 8
  %57 = icmp ne i64 %56, -1
  br i1 %57, label %58, label %69

58:                                               ; preds = %55
  %59 = load i64, ptr %13, align 8
  %60 = load ptr, ptr %12, align 8
  %61 = load i64, ptr %15, align 8
  %62 = add nsw i64 %61, -1
  store i64 %62, ptr %15, align 8
  %63 = getelementptr inbounds i64, ptr %60, i64 %61
  store i64 %59, ptr %63, align 8
  br label %64

64:                                               ; preds = %58
  %65 = load ptr, ptr %10, align 8
  %66 = load i64, ptr %13, align 8
  %67 = getelementptr inbounds i64, ptr %65, i64 %66
  %68 = load i64, ptr %67, align 8
  store i64 %68, ptr %13, align 8
  br label %55, !llvm.loop !6

69:                                               ; preds = %55
  %70 = load ptr, ptr %9, align 8
  %71 = load i64, ptr %16, align 8
  %72 = getelementptr inbounds i64, ptr %70, i64 %71
  store i64 -1, ptr %72, align 8
  br label %81

73:                                               ; preds = %23
  %74 = load i64, ptr %14, align 8
  %75 = add nsw i64 %74, -1
  store i64 %75, ptr %14, align 8
  %76 = load i64, ptr %8, align 8
  %77 = add nsw i64 %76, 1
  store i64 %77, ptr %8, align 8
  %78 = load ptr, ptr %11, align 8
  %79 = load i64, ptr %16, align 8
  %80 = getelementptr inbounds i64, ptr %78, i64 %79
  store i64 %76, ptr %80, align 8
  br label %81

81:                                               ; preds = %73, %69
  br label %20, !llvm.loop !7

82:                                               ; preds = %20
  %83 = load i64, ptr %8, align 8
  ret i64 %83
}


!llvm.module.flags = !{!0, !1, !2, !3}

!0 = !{i32 1, !"wchar_size", i32 4}
!1 = !{i32 8, !"PIC Level", i32 2}
!2 = !{i32 7, !"uwtable", i32 2}
!3 = !{i32 7, !"frame-pointer", i32 2}
!4 = distinct !{!4, !5}
!5 = !{!"llvm.loop.mustprogress"}
!6 = distinct !{!6, !5}
!7 = distinct !{!7, !5}
